; ModuleID = 'source-C-CXX/15/830.c'
source_filename = "source-C-CXX/15/830.c"
target datalayout = "e-m:e-p270:32:32-p271:32:32-p272:64:64-i64:64-f80:128-n8:16:32:64-S128"
target triple = "x86_64-pc-linux-gnu"

@.str = private unnamed_addr constant [3 x i8] c"%d\00", align 1
@.str.1 = private unnamed_addr constant [6 x i8] c"00001\00", align 1
@.str.2 = private unnamed_addr constant [5 x i8] c"%d%d\00", align 1
@.str.3 = private unnamed_addr constant [7 x i8] c"%d%d%d\00", align 1
@.str.4 = private unnamed_addr constant [9 x i8] c"%d%d%d%d\00", align 1

; Function Attrs: nofree nounwind sspstrong uwtable
define dso_local i32 @main() local_unnamed_addr #0 {
  %1 = alloca i32, align 4
  %2 = bitcast i32* %1 to i8*
  call void @llvm.lifetime.start.p0i8(i64 4, i8* nonnull %2) #3
  %3 = call i32 (i8*, ...) @__isoc99_scanf(i8* getelementptr inbounds ([3 x i8], [3 x i8]* @.str, i64 0, i64 0), i32* nonnull %1)
  %4 = load i32, i32* %1, align 4, !tbaa !5
  %5 = icmp sgt i32 %4, 9999
  br i1 %5, label %14, label %6

6:                                                ; preds = %0
  %7 = icmp sgt i32 %4, 999
  br i1 %7, label %35, label %8

8:                                                ; preds = %6
  %9 = icmp sgt i32 %4, 99
  br i1 %9, label %23, label %10

10:                                               ; preds = %8
  %11 = icmp sgt i32 %4, 9
  br i1 %11, label %16, label %12

12:                                               ; preds = %10
  %13 = call i32 (i8*, ...) @printf(i8* nonnull dereferenceable(1) getelementptr inbounds ([3 x i8], [3 x i8]* @.str, i64 0, i64 0), i32 %4)
  br label %52

14:                                               ; preds = %0
  %15 = call i32 (i8*, ...) @printf(i8* nonnull dereferenceable(1) getelementptr inbounds ([6 x i8], [6 x i8]* @.str.1, i64 0, i64 0))
  br label %52

16:                                               ; preds = %10
  %17 = trunc i32 %4 to i8
  %18 = udiv i8 %17, 10
  %19 = zext i8 %18 to i32
  %20 = mul nsw i32 %19, -10
  %21 = add nsw i32 %20, %4
  %22 = call i32 (i8*, ...) @printf(i8* nonnull dereferenceable(1) getelementptr inbounds ([5 x i8], [5 x i8]* @.str.2, i64 0, i64 0), i32 %21, i32 %19)
  br label %52

23:                                               ; preds = %8
  %24 = trunc i32 %4 to i16
  %25 = udiv i16 %24, 100
  %26 = zext i16 %25 to i32
  %27 = mul nsw i32 %26, -100
  %28 = add nsw i32 %27, %4
  %29 = trunc i32 %28 to i16
  %30 = sdiv i16 %29, 10
  %31 = sext i16 %30 to i32
  %32 = mul nsw i32 %31, -10
  %33 = add nsw i32 %32, %28
  %34 = call i32 (i8*, ...) @printf(i8* nonnull dereferenceable(1) getelementptr inbounds ([7 x i8], [7 x i8]* @.str.3, i64 0, i64 0), i32 %33, i32 %31, i32 %26)
  br label %52

35:                                               ; preds = %6
  %36 = trunc i32 %4 to i16
  %37 = udiv i16 %36, 1000
  %38 = zext i16 %37 to i32
  %39 = mul nsw i32 %38, -1000
  %40 = add nsw i32 %39, %4
  %41 = trunc i32 %40 to i16
  %42 = sdiv i16 %41, 100
  %43 = sext i16 %42 to i32
  %44 = mul nsw i32 %43, -100
  %45 = add nsw i32 %44, %40
  %46 = trunc i32 %45 to i16
  %47 = sdiv i16 %46, 10
  %48 = sext i16 %47 to i32
  %49 = mul nsw i32 %48, -10
  %50 = add nsw i32 %49, %45
  %51 = call i32 (i8*, ...) @printf(i8* nonnull dereferenceable(1) getelementptr inbounds ([9 x i8], [9 x i8]* @.str.4, i64 0, i64 0), i32 %50, i32 %48, i32 %43, i32 %38)
  br label %52

52:                                               ; preds = %35, %23, %16, %14, %12
  call void @llvm.lifetime.end.p0i8(i64 4, i8* nonnull %2) #3
  ret i32 0
}

; Function Attrs: argmemonly mustprogress nofree nosync nounwind willreturn
declare void @llvm.lifetime.start.p0i8(i64 immarg, i8* nocapture) #1

; Function Attrs: nofree nounwind
declare noundef i32 @__isoc99_scanf(i8* nocapture noundef readonly, ...) local_unnamed_addr #2

; Function Attrs: nofree nounwind
declare noundef i32 @printf(i8* nocapture noundef readonly, ...) local_unnamed_addr #2

; Function Attrs: argmemonly mustprogress nofree nosync nounwind willreturn
declare void @llvm.lifetime.end.p0i8(i64 immarg, i8* nocapture) #1


!llvm.module.flags = !{!0, !1, !2, !3}
!llvm.ident = !{!4}

!0 = !{i32 1, !"wchar_size", i32 4}
!1 = !{i32 7, !"PIC Level", i32 2}
!2 = !{i32 7, !"PIE Level", i32 2}
!3 = !{i32 7, !"uwtable", i32 1}
!4 = !{!"clang version 13.0.0"}
!5 = !{!6, !6, i64 0}
!6 = !{!"int", !7, i64 0}
!7 = !{!"omnipotent char", !8, i64 0}
!8 = !{!"Simple C/C++ TBAA"}
